; Function Attrs: nounwind uwtable
define dso_local noundef zeroext i1 @EvictUnpinnedBuffer(i32 noundef %0) local_unnamed_addr #0 {
  %2 = alloca %struct.SpinDelayStatus, align 8
  %3 = alloca i8, align 1
  %4 = load ptr, ptr @CurrentResourceOwner, align 8
  tail call void @ResourceOwnerEnlarge(ptr noundef %4) #16
  %5 = load ptr, ptr @ReservedRefCountEntry, align 8
  %.not.i = icmp eq ptr %5, null
  br i1 %.not.i, label %.critedge.i, label %ReservePrivateRefCountEntry.exit

6:                                                ; preds = %.critedge.i
  %indvars.iv.next.i = add nuw nsw i64 %indvars.iv.i, 1
  %exitcond.not.i = icmp eq i64 %indvars.iv.next.i, 8
  br i1 %exitcond.not.i, label %11, label %.critedge.i, !llvm.loop !8

.critedge.i:                                      ; preds = %1, %6
  %indvars.iv.i = phi i64 [ %indvars.iv.next.i, %6 ], [ 0, %1 ]
  %7 = getelementptr inbounds nuw [8 x %struct.PrivateRefCountEntry], ptr @PrivateRefCountArray, i64 0, i64 %indvars.iv.i
  %8 = load i32, ptr %7, align 8
  %.not8.i = icmp eq i32 %8, 0
  br i1 %.not8.i, label %9, label %6

9:                                                ; preds = %.critedge.i
  %10 = getelementptr inbounds nuw [8 x %struct.PrivateRefCountEntry], ptr @PrivateRefCountArray, i64 0, i64 %indvars.iv.i
  store ptr %10, ptr @ReservedRefCountEntry, align 8
  br label %ReservePrivateRefCountEntry.exit

11:                                               ; preds = %6
  call void @llvm.lifetime.start.p0(i64 1, ptr nonnull %3) #16
  %12 = load i32, ptr @PrivateRefCountClock, align 4
  %13 = add i32 %12, 1
  store i32 %13, ptr @PrivateRefCountClock, align 4
  %14 = and i32 %12, 7
  %15 = zext nneg i32 %14 to i64
  %16 = getelementptr inbounds nuw [8 x %struct.PrivateRefCountEntry], ptr @PrivateRefCountArray, i64 0, i64 %15
  store ptr %16, ptr @ReservedRefCountEntry, align 8
  %17 = load ptr, ptr @PrivateRefCountHash, align 8
  %18 = call ptr @hash_search(ptr noundef %17, ptr noundef nonnull %16, i32 noundef 1, ptr noundef nonnull %3) #16
  %19 = load ptr, ptr @ReservedRefCountEntry, align 8
  %20 = getelementptr inbounds nuw i8, ptr %19, i64 4
  %21 = load i32, ptr %20, align 4
  %22 = getelementptr inbounds nuw i8, ptr %18, i64 4
  store i32 %21, ptr %22, align 4
  store i32 0, ptr %19, align 4
  store i32 0, ptr %20, align 4
  %23 = load i32, ptr @PrivateRefCountOverflowed, align 4
  %24 = add i32 %23, 1
  store i32 %24, ptr @PrivateRefCountOverflowed, align 4
  call void @llvm.lifetime.end.p0(i64 1, ptr nonnull %3) #16
  br label %ReservePrivateRefCountEntry.exit

ReservePrivateRefCountEntry.exit:                 ; preds = %1, %9, %11
  %25 = add i32 %0, -1
  %26 = load ptr, ptr @BufferDescriptors, align 8
  %27 = zext i32 %25 to i64
  %28 = getelementptr inbounds nuw %union.BufferDescPadded, ptr %26, i64 %27
  call void @llvm.lifetime.start.p0(i64 40, ptr nonnull %2) #16
  store i32 0, ptr %2, align 8
  %29 = getelementptr inbounds nuw i8, ptr %2, i64 4
  store i32 0, ptr %29, align 4
  %30 = getelementptr inbounds nuw i8, ptr %2, i64 8
  store i32 0, ptr %30, align 8
  %31 = getelementptr inbounds nuw i8, ptr %2, i64 16
  store ptr @.str.3, ptr %31, align 8
  %32 = getelementptr inbounds nuw i8, ptr %2, i64 24
  store i32 5707, ptr %32, align 8
  %33 = getelementptr inbounds nuw i8, ptr %2, i64 32
  store ptr @__func__.LockBufHdr, ptr %33, align 8
  %34 = getelementptr inbounds nuw i8, ptr %28, i64 24
  %35 = atomicrmw or ptr %34, i32 4194304 seq_cst, align 4
  %36 = and i32 %35, 4194304
  %.not2.i = icmp eq i32 %36, 0
  br i1 %.not2.i, label %LockBufHdr.exit, label %.lr.ph.i

.lr.ph.i:                                         ; preds = %ReservePrivateRefCountEntry.exit, %.lr.ph.i
  call void @perform_spin_delay(ptr noundef nonnull %2) #16
  %37 = atomicrmw or ptr %34, i32 4194304 seq_cst, align 4
  %38 = and i32 %37, 4194304
  %.not.i17 = icmp eq i32 %38, 0
  br i1 %.not.i17, label %LockBufHdr.exit, label %.lr.ph.i

LockBufHdr.exit:                                  ; preds = %.lr.ph.i, %ReservePrivateRefCountEntry.exit
  %.lcssa.i = phi i32 [ %35, %ReservePrivateRefCountEntry.exit ], [ %37, %.lr.ph.i ]
  call void @finish_spin_delay(ptr noundef nonnull %2) #16
  call void @llvm.lifetime.end.p0(i64 40, ptr nonnull %2) #16
  %39 = and i32 %.lcssa.i, 16777216
  %40 = icmp eq i32 %39, 0
  br i1 %40, label %41, label %43

41:                                               ; preds = %LockBufHdr.exit
  call void asm sideeffect "", "~{memory},~{dirflag},~{fpsr},~{flags}"() #16, !srcloc !4
  %42 = and i32 %.lcssa.i, -20971521
  store volatile i32 %42, ptr %34, align 4
  br label %66

43:                                               ; preds = %LockBufHdr.exit
  %44 = and i32 %.lcssa.i, 262143
  %.not = icmp eq i32 %44, 0
  br i1 %.not, label %47, label %45

45:                                               ; preds = %43
  call void asm sideeffect "", "~{memory},~{dirflag},~{fpsr},~{flags}"() #16, !srcloc !4
  %46 = and i32 %.lcssa.i, -4194305
  store volatile i32 %46, ptr %34, align 4
  br label %66

47:                                               ; preds = %43
  %48 = load volatile i32, ptr %34, align 4
  %49 = add i32 %48, 1
  call void asm sideeffect "", "~{memory},~{dirflag},~{fpsr},~{flags}"() #16, !srcloc !4
  %50 = and i32 %49, -4194305
  store volatile i32 %50, ptr %34, align 4
  %51 = getelementptr i8, ptr %28, i64 20
  %.val.i = load i32, ptr %51, align 4
  %52 = add i32 %.val.i, 1
  %53 = load ptr, ptr @ReservedRefCountEntry, align 8
  store ptr null, ptr @ReservedRefCountEntry, align 8
  store i32 %52, ptr %53, align 4
  %54 = getelementptr inbounds nuw i8, ptr %53, i64 4
  store i32 1, ptr %54, align 4
  %55 = load ptr, ptr @CurrentResourceOwner, align 8
  %56 = sext i32 %52 to i64
  call void @ResourceOwnerRemember(ptr noundef %55, i64 noundef %56, ptr noundef nonnull @buffer_pin_resowner_desc) #16
  %57 = and i32 %.lcssa.i, 8388608
  %.not16 = icmp eq i32 %57, 0
  br i1 %.not16, label %61, label %58

58:                                               ; preds = %47
  %59 = getelementptr inbounds nuw i8, ptr %28, i64 36
  %60 = call zeroext i1 @LWLockAcquire(ptr noundef nonnull %59, i32 noundef 1) #16
  call fastcc void @FlushBuffer(ptr noundef nonnull %28, ptr noundef null, i32 noundef 3)
  call void @LWLockRelease(ptr noundef nonnull %59) #16
  br label %61

61:                                               ; preds = %58, %47
  %62 = call fastcc zeroext i1 @InvalidateVictimBuffer(ptr noundef nonnull %28)
  %.val.i18 = load i32, ptr %51, align 4
  %63 = add i32 %.val.i18, 1
  %64 = load ptr, ptr @CurrentResourceOwner, align 8
  %65 = sext i32 %63 to i64
  call void @ResourceOwnerForget(ptr noundef %64, i64 noundef %65, ptr noundef nonnull @buffer_pin_resowner_desc) #16
  call fastcc void @UnpinBufferNoOwner(ptr noundef nonnull %28)
  br label %66

66:                                               ; preds = %61, %45, %41
  %.0 = phi i1 [ false, %41 ], [ false, %45 ], [ %62, %61 ]
  ret i1 %.0
}